; Function Attrs: nounwind uwtable
define ptr @l_Lake_Toml_dateTimeFn(ptr noundef %0, ptr noundef %1) local_unnamed_addr #1 {
  %3 = tail call ptr @l_Lake_Toml_repeatFn_loop___at_Lake_Toml_dateTimeFn___spec__1(ptr noundef %0, ptr noundef nonnull inttoptr (i64 9 to ptr), ptr noundef %1)
  %4 = getelementptr inbounds nuw i8, ptr %3, i64 40
  %5 = load ptr, ptr %4, align 8, !tbaa !10
  %6 = ptrtoint ptr %5 to i64
  %7 = and i64 %6, 1
  %.not = icmp eq i64 %7, 0
  br i1 %.not, label %8, label %lean_inc.exit22

8:                                                ; preds = %2
  %.val.i = load i32, ptr %5, align 4, !tbaa !4
  %9 = icmp sgt i32 %.val.i, 0
  br i1 %9, label %10, label %12, !prof !9

10:                                               ; preds = %8
  %11 = add nuw i32 %.val.i, 1
  store i32 %11, ptr %5, align 4, !tbaa !4
  br label %lean_inc.exit22

12:                                               ; preds = %8
  %.not.i = icmp eq i32 %.val.i, 0
  br i1 %.not.i, label %lean_inc.exit22, label %13

13:                                               ; preds = %12
  tail call void @lean_inc_ref_cold(ptr noundef nonnull %5) #4
  br label %lean_inc.exit22

lean_inc.exit22:                                  ; preds = %13, %12, %10, %2
  %14 = tail call zeroext i8 @l_Option_beqOption____x40_Init_Data_Option_Basic___hyg_160____at_Lean_Parser_ParserState_hasError___spec__1(ptr noundef %5, ptr noundef nonnull inttoptr (i64 1 to ptr)) #4
  %15 = icmp eq i8 %14, 0
  br i1 %15, label %33, label %16

16:                                               ; preds = %lean_inc.exit22
  %17 = load ptr, ptr @l_Lake_Toml_dateTimeAuxFn___closed__6, align 8, !tbaa !10
  %18 = tail call ptr @l_Lake_Toml_chFn(i32 noundef 45, ptr noundef %17, ptr noundef %0, ptr noundef nonnull %3) #4
  %19 = getelementptr inbounds nuw i8, ptr %18, i64 40
  %20 = load ptr, ptr %19, align 8, !tbaa !10
  %21 = ptrtoint ptr %20 to i64
  %22 = and i64 %21, 1
  %.not26 = icmp eq i64 %22, 0
  br i1 %.not26, label %23, label %lean_inc.exit

23:                                               ; preds = %16
  %.val.i23 = load i32, ptr %20, align 4, !tbaa !4
  %24 = icmp sgt i32 %.val.i23, 0
  br i1 %24, label %25, label %27, !prof !9

25:                                               ; preds = %23
  %26 = add nuw i32 %.val.i23, 1
  store i32 %26, ptr %20, align 4, !tbaa !4
  br label %lean_inc.exit

27:                                               ; preds = %23
  %.not.i24 = icmp eq i32 %.val.i23, 0
  br i1 %.not.i24, label %lean_inc.exit, label %28

28:                                               ; preds = %27
  tail call void @lean_inc_ref_cold(ptr noundef nonnull %20) #4
  br label %lean_inc.exit

lean_inc.exit:                                    ; preds = %28, %27, %25, %16
  %29 = tail call zeroext i8 @l_Option_beqOption____x40_Init_Data_Option_Basic___hyg_160____at_Lean_Parser_ParserState_hasError___spec__1(ptr noundef %20, ptr noundef nonnull inttoptr (i64 1 to ptr)) #4
  %30 = icmp eq i8 %29, 0
  br i1 %30, label %33, label %31

31:                                               ; preds = %lean_inc.exit
  %32 = tail call ptr @l_Lake_Toml_dateTimeAuxFn(ptr noundef %0, ptr noundef nonnull %18)
  br label %33

33:                                               ; preds = %31, %lean_inc.exit, %lean_inc.exit22
  %.0 = phi ptr [ %3, %lean_inc.exit22 ], [ %32, %31 ], [ %18, %lean_inc.exit ]
  ret ptr %.0
}